; ModuleID = '24/1408.c'
source_filename = "24/1408.c"
target datalayout = "e-m:e-p270:32:32-p271:32:32-p272:64:64-i64:64-f80:128-n8:16:32:64-S128"
target triple = "x86_64-pc-linux-gnu"

@.str = private unnamed_addr constant [3 x i8] c"%s\00", align 1
@.str.1 = private unnamed_addr constant [4 x i8] c"%s\0A\00", align 1

; Function Attrs: noinline nounwind uwtable
define dso_local i32 @main() #0 {
  %1 = alloca i32, align 4
  %2 = alloca i32, align 4
  %3 = alloca i32, align 4
  %4 = alloca [100 x [100 x i8]], align 16
  %5 = alloca [100 x i8], align 16
  %6 = alloca [100 x i8], align 16
  %7 = alloca i32, align 4
  store i32 0, i32* %1, align 4
  store i32 0, i32* %7, align 4
  store i32 0, i32* %2, align 4
  br label %8

8:                                                ; preds = %24, %0
  %9 = load i32, i32* %2, align 4
  %10 = icmp slt i32 %9, 100
  br i1 %10, label %11, label %27

11:                                               ; preds = %8
  %12 = load i32, i32* %2, align 4
  %13 = sext i32 %12 to i64
  %14 = getelementptr inbounds [100 x [100 x i8]], [100 x [100 x i8]]* %4, i64 0, i64 %13
  %15 = getelementptr inbounds [100 x i8], [100 x i8]* %14, i64 0, i64 0
  %16 = call i32 (i8*, ...) @__isoc99_scanf(i8* getelementptr inbounds ([3 x i8], [3 x i8]* @.str, i64 0, i64 0), i8* %15)
  %17 = load i32, i32* %7, align 4
  %18 = add nsw i32 %17, 1
  store i32 %18, i32* %7, align 4
  %19 = call i32 @getchar()
  store i32 %19, i32* %3, align 4
  %20 = load i32, i32* %3, align 4
  %21 = icmp eq i32 %20, 10
  br i1 %21, label %22, label %23

22:                                               ; preds = %11
  br label %27

23:                                               ; preds = %11
  br label %24

24:                                               ; preds = %23
  %25 = load i32, i32* %2, align 4
  %26 = add nsw i32 %25, 1
  store i32 %26, i32* %2, align 4
  br label %8

27:                                               ; preds = %22, %8
  %28 = getelementptr inbounds [100 x i8], [100 x i8]* %5, i64 0, i64 0
  %29 = getelementptr inbounds [100 x [100 x i8]], [100 x [100 x i8]]* %4, i64 0, i64 0
  %30 = getelementptr inbounds [100 x i8], [100 x i8]* %29, i64 0, i64 0
  %31 = call i8* @strcpy(i8* %28, i8* %30) #4
  store i32 0, i32* %2, align 4
  br label %32

32:                                               ; preds = %53, %27
  %33 = load i32, i32* %2, align 4
  %34 = load i32, i32* %7, align 4
  %35 = icmp slt i32 %33, %34
  br i1 %35, label %36, label %56

36:                                               ; preds = %32
  %37 = getelementptr inbounds [100 x i8], [100 x i8]* %5, i64 0, i64 0
  %38 = call i64 @strlen(i8* %37) #5
  %39 = load i32, i32* %2, align 4
  %40 = sext i32 %39 to i64
  %41 = getelementptr inbounds [100 x [100 x i8]], [100 x [100 x i8]]* %4, i64 0, i64 %40
  %42 = getelementptr inbounds [100 x i8], [100 x i8]* %41, i64 0, i64 0
  %43 = call i64 @strlen(i8* %42) #5
  %44 = icmp ugt i64 %38, %43
  br i1 %44, label %45, label %52

45:                                               ; preds = %36
  %46 = getelementptr inbounds [100 x i8], [100 x i8]* %5, i64 0, i64 0
  %47 = load i32, i32* %2, align 4
  %48 = sext i32 %47 to i64
  %49 = getelementptr inbounds [100 x [100 x i8]], [100 x [100 x i8]]* %4, i64 0, i64 %48
  %50 = getelementptr inbounds [100 x i8], [100 x i8]* %49, i64 0, i64 0
  %51 = call i8* @strcpy(i8* %46, i8* %50) #4
  br label %52

52:                                               ; preds = %45, %36
  br label %53

53:                                               ; preds = %52
  %54 = load i32, i32* %2, align 4
  %55 = add nsw i32 %54, 1
  store i32 %55, i32* %2, align 4
  br label %32

56:                                               ; preds = %32
  %57 = getelementptr inbounds [100 x i8], [100 x i8]* %6, i64 0, i64 0
  %58 = getelementptr inbounds [100 x [100 x i8]], [100 x [100 x i8]]* %4, i64 0, i64 0
  %59 = getelementptr inbounds [100 x i8], [100 x i8]* %58, i64 0, i64 0
  %60 = call i8* @strcpy(i8* %57, i8* %59) #4
  store i32 0, i32* %2, align 4
  br label %61

61:                                               ; preds = %82, %56
  %62 = load i32, i32* %2, align 4
  %63 = load i32, i32* %7, align 4
  %64 = icmp slt i32 %62, %63
  br i1 %64, label %65, label %85

65:                                               ; preds = %61
  %66 = getelementptr inbounds [100 x i8], [100 x i8]* %6, i64 0, i64 0
  %67 = call i64 @strlen(i8* %66) #5
  %68 = load i32, i32* %2, align 4
  %69 = sext i32 %68 to i64
  %70 = getelementptr inbounds [100 x [100 x i8]], [100 x [100 x i8]]* %4, i64 0, i64 %69
  %71 = getelementptr inbounds [100 x i8], [100 x i8]* %70, i64 0, i64 0
  %72 = call i64 @strlen(i8* %71) #5
  %73 = icmp ult i64 %67, %72
  br i1 %73, label %74, label %81

74:                                               ; preds = %65
  %75 = getelementptr inbounds [100 x i8], [100 x i8]* %6, i64 0, i64 0
  %76 = load i32, i32* %2, align 4
  %77 = sext i32 %76 to i64
  %78 = getelementptr inbounds [100 x [100 x i8]], [100 x [100 x i8]]* %4, i64 0, i64 %77
  %79 = getelementptr inbounds [100 x i8], [100 x i8]* %78, i64 0, i64 0
  %80 = call i8* @strcpy(i8* %75, i8* %79) #4
  br label %81

81:                                               ; preds = %74, %65
  br label %82

82:                                               ; preds = %81
  %83 = load i32, i32* %2, align 4
  %84 = add nsw i32 %83, 1
  store i32 %84, i32* %2, align 4
  br label %61

85:                                               ; preds = %61
  %86 = getelementptr inbounds [100 x i8], [100 x i8]* %6, i64 0, i64 0
  %87 = call i32 (i8*, ...) @printf(i8* getelementptr inbounds ([4 x i8], [4 x i8]* @.str.1, i64 0, i64 0), i8* %86)
  %88 = getelementptr inbounds [100 x i8], [100 x i8]* %5, i64 0, i64 0
  %89 = call i32 (i8*, ...) @printf(i8* getelementptr inbounds ([4 x i8], [4 x i8]* @.str.1, i64 0, i64 0), i8* %88)
  %90 = load i32, i32* %1, align 4
  ret i32 %90
}

declare dso_local i32 @__isoc99_scanf(i8*, ...) #1

declare dso_local i32 @getchar() #1

; Function Attrs: nounwind
declare dso_local i8* @strcpy(i8*, i8*) #2

; Function Attrs: nounwind readonly
declare dso_local i64 @strlen(i8*) #3

declare dso_local i32 @printf(i8*, ...) #1


!llvm.module.flags = !{!0}
!llvm.ident = !{!1}

!0 = !{i32 1, !"wchar_size", i32 4}
!1 = !{!"clang version 10.0.0-4ubuntu1 "}
